target datalayout = "e-m:e-p270:32:32-p271:32:32-p272:64:64-i64:64-i128:128-f80:128-n8:16:32:64-S128"
target triple = "x86_64-pc-linux-gnu"

%"class.sat::literal" = type { i32 }
%"struct.sat::local_search::var_info" = type { i8, i32, i8, %"class.sat::literal", i8, i8, i32, i32, i32, %class.svector.1, [2 x %class.svector.11], [2 x %class.svector.4], i32, %class.ema, double }
%class.svector.1 = type { %class.vector.2 }
%class.vector.2 = type { ptr }
%class.svector.11 = type { %class.vector.12 }
%class.vector.12 = type { ptr }
%class.svector.4 = type { %class.vector.5 }
%class.vector.5 = type { ptr }
%class.ema = type { double, double, double, i32, i32 }
%"class.sat::local_search" = type { %"class.sat::i_local_search", %"struct.sat::local_search::stats", %"class.sat::local_search_config", %class.vector, %class.svector, %class.svector.1, %class.vector.3, %class.svector.4, %class.svector.4, i32, i8, i8, %class.svector.1, %class.svector.1, %class.svector.1, i8, i32, double, double, i32, i32, double, double, %class.reslimit, %class.random_gen, ptr, %class.svector.9 }
%"class.sat::i_local_search" = type { ptr }
%"struct.sat::local_search::stats" = type { i32, i32 }
%"class.sat::local_search_config" = type { i32, i32, i32, i8, i8, double }
%class.vector = type { ptr }
%class.svector = type { %class.vector.0 }
%class.vector.0 = type { ptr }
%class.vector.3 = type { ptr }
%class.reslimit = type { %"struct.std::atomic", i8, i64, i64, %class.svector.6, %class.ptr_vector }
%"struct.std::atomic" = type { %"struct.std::__atomic_base" }
%"struct.std::__atomic_base" = type { i32 }
%class.svector.6 = type { %class.vector.7 }
%class.vector.7 = type { ptr }
%class.ptr_vector = type { %class.vector.8 }
%class.vector.8 = type { ptr }
%class.random_gen = type { i32 }
%class.svector.9 = type { %class.vector.10 }
%class.vector.10 = type { ptr }

; Function Attrs: mustprogress nounwind uwtable
define linkonce_odr hidden noundef nonnull align 8 dereferenceable(120) ptr @_ZNK6vectorIN3sat12local_search8var_infoELb1EjEixEj(ptr noundef nonnull align 8 dereferenceable(8) %0, i32 noundef %1) #6 comdat align 2 {
  %3 = alloca ptr, align 8
  %4 = alloca i32, align 4
  store ptr %0, ptr %3, align 8, !tbaa !51
  store i32 %1, ptr %4, align 4, !tbaa !10
  %5 = load ptr, ptr %3, align 8
  %6 = getelementptr inbounds nuw %class.vector, ptr %5, i32 0, i32 0
  %7 = load ptr, ptr %6, align 8, !tbaa !73
  %8 = load i32, ptr %4, align 4, !tbaa !10
  %9 = zext i32 %8 to i64
  %10 = getelementptr inbounds nuw %"struct.sat::local_search::var_info", ptr %7, i64 %9
  ret ptr %10
}

; Function Attrs: mustprogress nounwind uwtable
define linkonce_odr hidden noundef i32 @_ZNK6vectorIN3sat12local_search8var_infoELb1EjE4sizeEv(ptr noundef nonnull align 8 dereferenceable(8) %0) #6 comdat align 2 {
  %2 = alloca i32, align 4
  %3 = alloca ptr, align 8
  store ptr %0, ptr %3, align 8, !tbaa !51
  %4 = load ptr, ptr %3, align 8
  %5 = getelementptr inbounds nuw %class.vector, ptr %4, i32 0, i32 0
  %6 = load ptr, ptr %5, align 8, !tbaa !73
  %7 = icmp eq ptr %6, null
  br i1 %7, label %8, label %9

8:                                                ; preds = %1
  store i32 0, ptr %2, align 4
  br label %14

9:                                                ; preds = %1
  %10 = getelementptr inbounds nuw %class.vector, ptr %4, i32 0, i32 0
  %11 = load ptr, ptr %10, align 8, !tbaa !73
  %12 = getelementptr inbounds i32, ptr %11, i64 -1
  %13 = load i32, ptr %12, align 4, !tbaa !10
  store i32 %13, ptr %2, align 4
  br label %14

14:                                               ; preds = %9, %8
  %15 = load i32, ptr %2, align 4
  ret i32 %15
}

; Function Attrs: mustprogress nounwind uwtable
define linkonce_odr hidden noundef i32 @_ZNK6vectorIjLb0EjE4sizeEv(ptr noundef nonnull align 8 dereferenceable(8) %0) #6 comdat align 2 {
  %2 = alloca i32, align 4
  %3 = alloca ptr, align 8
  store ptr %0, ptr %3, align 8, !tbaa !66
  %4 = load ptr, ptr %3, align 8
  %5 = getelementptr inbounds nuw %class.vector.2, ptr %4, i32 0, i32 0
  %6 = load ptr, ptr %5, align 8, !tbaa !68
  %7 = icmp eq ptr %6, null
  br i1 %7, label %8, label %9

8:                                                ; preds = %1
  store i32 0, ptr %2, align 4
  br label %14

9:                                                ; preds = %1
  %10 = getelementptr inbounds nuw %class.vector.2, ptr %4, i32 0, i32 0
  %11 = load ptr, ptr %10, align 8, !tbaa !68
  %12 = getelementptr inbounds i32, ptr %11, i64 -1
  %13 = load i32, ptr %12, align 4, !tbaa !10
  store i32 %13, ptr %2, align 4
  br label %14

14:                                               ; preds = %9, %8
  %15 = load i32, ptr %2, align 4
  ret i32 %15
}

; Function Attrs: inlinehint mustprogress uwtable
define linkonce_odr hidden noundef i32 @_ZNK3sat12local_search5scoreEj(ptr noundef nonnull align 8 dereferenceable(232) %0, i32 noundef %1) #8 comdat align 2 {
  %3 = alloca ptr, align 8
  %4 = alloca i32, align 4
  store ptr %0, ptr %3, align 8, !tbaa !3
  store i32 %1, ptr %4, align 4, !tbaa !10
  %5 = load ptr, ptr %3, align 8
  %6 = getelementptr inbounds nuw %"class.sat::local_search", ptr %5, i32 0, i32 3
  %7 = load i32, ptr %4, align 4, !tbaa !10
  %8 = call noundef nonnull align 8 dereferenceable(120) ptr @_ZNK6vectorIN3sat12local_search8var_infoELb1EjEixEj(ptr noundef nonnull align 8 dereferenceable(8) %6, i32 noundef %7)
  %9 = getelementptr inbounds nuw %"struct.sat::local_search::var_info", ptr %8, i32 0, i32 6
  %10 = load i32, ptr %9, align 4, !tbaa !76
  ret i32 %10
}

; Function Attrs: inlinehint mustprogress uwtable
define linkonce_odr hidden noundef zeroext i1 @_ZNK3sat12local_search11conf_changeEj(ptr noundef nonnull align 8 dereferenceable(232) %0, i32 noundef %1) #8 comdat align 2 {
  %3 = alloca ptr, align 8
  %4 = alloca i32, align 4
  store ptr %0, ptr %3, align 8, !tbaa !3
  store i32 %1, ptr %4, align 4, !tbaa !10
  %5 = load ptr, ptr %3, align 8
  %6 = getelementptr inbounds nuw %"class.sat::local_search", ptr %5, i32 0, i32 3
  %7 = load i32, ptr %4, align 4, !tbaa !10
  %8 = call noundef nonnull align 8 dereferenceable(120) ptr @_ZNK6vectorIN3sat12local_search8var_infoELb1EjEixEj(ptr noundef nonnull align 8 dereferenceable(8) %6, i32 noundef %7)
  %9 = getelementptr inbounds nuw %"struct.sat::local_search::var_info", ptr %8, i32 0, i32 4
  %10 = load i8, ptr %9, align 8, !tbaa !74, !range !49, !noundef !50
  %11 = trunc i8 %10 to i1
  ret i1 %11
}

; Function Attrs: mustprogress uwtable
define linkonce_odr hidden noundef i32 @_ZNK3sat12local_search8num_varsEv(ptr noundef nonnull align 8 dereferenceable(232) %0) #4 comdat align 2 {
  %2 = alloca ptr, align 8
  store ptr %0, ptr %2, align 8, !tbaa !3
  %3 = load ptr, ptr %2, align 8
  %4 = getelementptr inbounds nuw %"class.sat::local_search", ptr %3, i32 0, i32 3
  %5 = call noundef i32 @_ZNK6vectorIN3sat12local_search8var_infoELb1EjE4sizeEv(ptr noundef nonnull align 8 dereferenceable(8) %4)
  %6 = sub i32 %5, 1
  ret i32 %6
}

; Function Attrs: mustprogress uwtable
define hidden noundef zeroext i1 @_ZNK3sat12local_search14verify_goodvarEv(ptr noundef nonnull align 8 dereferenceable(232) %0) #4 align 2 {
  %2 = alloca ptr, align 8
  %3 = alloca i32, align 4
  %4 = alloca i32, align 4
  store ptr %0, ptr %2, align 8, !tbaa !3
  %5 = load ptr, ptr %2, align 8
  call void @llvm.lifetime.start.p0(i64 4, ptr %3) #3
  store i32 0, ptr %3, align 4, !tbaa !10
  call void @llvm.lifetime.start.p0(i64 4, ptr %4) #3
  store i32 0, ptr %4, align 4, !tbaa !10
  br label %6

6:                                                ; preds = %22, %1
  %7 = load i32, ptr %4, align 4, !tbaa !10
  %8 = call noundef i32 @_ZNK3sat12local_search8num_varsEv(ptr noundef nonnull align 8 dereferenceable(232) %5)
  %9 = icmp ult i32 %7, %8
  br i1 %9, label %11, label %10

10:                                               ; preds = %6
  call void @llvm.lifetime.end.p0(i64 4, ptr %4) #3
  br label %25

11:                                               ; preds = %6
  %12 = load i32, ptr %4, align 4, !tbaa !10
  %13 = call noundef zeroext i1 @_ZNK3sat12local_search11conf_changeEj(ptr noundef nonnull align 8 dereferenceable(232) %5, i32 noundef %12)
  br i1 %13, label %14, label %21

14:                                               ; preds = %11
  %15 = load i32, ptr %4, align 4, !tbaa !10
  %16 = call noundef i32 @_ZNK3sat12local_search5scoreEj(ptr noundef nonnull align 8 dereferenceable(232) %5, i32 noundef %15)
  %17 = icmp sgt i32 %16, 0
  br i1 %17, label %18, label %21

18:                                               ; preds = %14
  %19 = load i32, ptr %3, align 4, !tbaa !10
  %20 = add i32 %19, 1
  store i32 %20, ptr %3, align 4, !tbaa !10
  br label %21

21:                                               ; preds = %18, %14, %11
  br label %22

22:                                               ; preds = %21
  %23 = load i32, ptr %4, align 4, !tbaa !10
  %24 = add i32 %23, 1
  store i32 %24, ptr %4, align 4, !tbaa !10
  br label %6, !llvm.loop !138

25:                                               ; preds = %10
  %26 = load i32, ptr %3, align 4, !tbaa !10
  %27 = getelementptr inbounds nuw %"class.sat::local_search", ptr %5, i32 0, i32 14
  %28 = call noundef i32 @_ZNK6vectorIjLb0EjE4sizeEv(ptr noundef nonnull align 8 dereferenceable(8) %27)
  %29 = icmp eq i32 %26, %28
  call void @llvm.lifetime.end.p0(i64 4, ptr %3) #3
  ret i1 %29
}