; Function Attrs: mustprogress nofree norecurse nosync nounwind willreturn memory(read, inaccessiblemem: none) uwtable
define hidden noundef zeroext i1 @_ZNK3sat12local_search14verify_goodvarEv(ptr noundef nonnull readonly align 8 captures(none) dereferenceable(232) %0) local_unnamed_addr #10 align 2 {
.split:
  %1 = getelementptr inbounds nuw i8, ptr %0, i64 40
  %2 = load ptr, ptr %1, align 8, !tbaa !49, !nonnull !8, !noundef !8
  %3 = getelementptr inbounds i8, ptr %2, i64 -4
  %4 = load i32, ptr %3, align 4, !tbaa !13
  %5 = add i32 %4, -1
  %.not = icmp eq i32 %5, 0
  br i1 %.not, label %.split8.us, label %.lr.ph.preheader

.lr.ph.preheader:                                 ; preds = %.split
  %wide.trip.count = zext i32 %5 to i64
  br label %.lr.ph

.split8.us:                                       ; preds = %_ZNK3sat12local_search8num_varsEv.exit, %.split
  %.us-phi = phi i32 [ 0, %.split ], [ %.1, %_ZNK3sat12local_search8num_varsEv.exit ]
  %6 = getelementptr inbounds nuw i8, ptr %0, i64 112
  %7 = load ptr, ptr %6, align 8, !tbaa !9
  %8 = icmp eq ptr %7, null
  br i1 %8, label %_ZNK6vectorIjLb0EjE4sizeEv.exit, label %9

9:                                                ; preds = %.split8.us
  %10 = getelementptr inbounds i8, ptr %7, i64 -4
  %11 = load i32, ptr %10, align 4, !tbaa !13
  br label %_ZNK6vectorIjLb0EjE4sizeEv.exit

_ZNK6vectorIjLb0EjE4sizeEv.exit:                  ; preds = %.split8.us, %9
  %.0.i = phi i32 [ %11, %9 ], [ 0, %.split8.us ]
  %12 = icmp eq i32 %.us-phi, %.0.i
  ret i1 %12

.lr.ph:                                           ; preds = %.lr.ph.preheader, %_ZNK3sat12local_search8num_varsEv.exit
  %indvars.iv = phi i64 [ 0, %.lr.ph.preheader ], [ %indvars.iv.next, %_ZNK3sat12local_search8num_varsEv.exit ]
  %.069 = phi i32 [ 0, %.lr.ph.preheader ], [ %.1, %_ZNK3sat12local_search8num_varsEv.exit ]
  %13 = getelementptr inbounds nuw %"struct.sat::local_search::var_info", ptr %2, i64 %indvars.iv, i32 4
  %14 = load i8, ptr %13, align 8, !tbaa !60, !range !7, !noundef !8
  %15 = trunc nuw i8 %14 to i1
  br i1 %15, label %16, label %_ZNK3sat12local_search8num_varsEv.exit

16:                                               ; preds = %.lr.ph
  %17 = getelementptr inbounds nuw %"struct.sat::local_search::var_info", ptr %2, i64 %indvars.iv, i32 6
  %18 = load i32, ptr %17, align 4, !tbaa !86
  %19 = icmp sgt i32 %18, 0
  %20 = zext i1 %19 to i32
  %spec.select = add i32 %.069, %20
  br label %_ZNK3sat12local_search8num_varsEv.exit

_ZNK3sat12local_search8num_varsEv.exit:           ; preds = %16, %.lr.ph
  %.1 = phi i32 [ %.069, %.lr.ph ], [ %spec.select, %16 ]
  %indvars.iv.next = add nuw nsw i64 %indvars.iv, 1
  %exitcond.not = icmp eq i64 %indvars.iv.next, %wide.trip.count
  br i1 %exitcond.not, label %.split8.us, label %.lr.ph, !llvm.loop !108
}